; ModuleID = '34/3298.c'
source_filename = "34/3298.c"
target datalayout = "e-m:e-p270:32:32-p271:32:32-p272:64:64-i64:64-f80:128-n8:16:32:64-S128"
target triple = "x86_64-pc-linux-gnu"

@.str = private unnamed_addr constant [3 x i8] c"%d\00", align 1
@.str.1 = private unnamed_addr constant [5 x i8] c"End\0A\00", align 1
@.str.2 = private unnamed_addr constant [9 x i8] c"%d/2=%d\0A\00", align 1
@.str.3 = private unnamed_addr constant [11 x i8] c"%d*3+1=%d\0A\00", align 1

; Function Attrs: noinline nounwind uwtable
define dso_local i32 @main() #0 {
  %1 = alloca i32, align 4
  %2 = alloca i32, align 4
  %3 = alloca i32, align 4
  %4 = alloca i32, align 4
  %5 = alloca i32, align 4
  store i32 0, i32* %1, align 4
  %6 = call i32 (i8*, ...) @__isoc99_scanf(i8* getelementptr inbounds ([3 x i8], [3 x i8]* @.str, i64 0, i64 0), i32* %2)
  %7 = load i32, i32* %2, align 4
  %8 = icmp eq i32 %7, 1
  br i1 %8, label %9, label %11

9:                                                ; preds = %0
  %10 = call i32 (i8*, ...) @printf(i8* getelementptr inbounds ([5 x i8], [5 x i8]* @.str.1, i64 0, i64 0))
  br label %40

11:                                               ; preds = %0
  %12 = load i32, i32* %2, align 4
  store i32 %12, i32* %3, align 4
  %13 = load i32, i32* %2, align 4
  store i32 %13, i32* %4, align 4
  br label %14

14:                                               ; preds = %37, %11
  %15 = load i32, i32* %3, align 4
  %16 = icmp eq i32 %15, 1
  br i1 %16, label %17, label %18

17:                                               ; preds = %14
  br label %38

18:                                               ; preds = %14
  %19 = load i32, i32* %3, align 4
  %20 = srem i32 %19, 2
  %21 = icmp eq i32 %20, 0
  br i1 %21, label %22, label %29

22:                                               ; preds = %18
  %23 = load i32, i32* %3, align 4
  %24 = sdiv i32 %23, 2
  store i32 %24, i32* %4, align 4
  %25 = load i32, i32* %3, align 4
  %26 = load i32, i32* %4, align 4
  %27 = call i32 (i8*, ...) @printf(i8* getelementptr inbounds ([9 x i8], [9 x i8]* @.str.2, i64 0, i64 0), i32 %25, i32 %26)
  %28 = load i32, i32* %4, align 4
  store i32 %28, i32* %3, align 4
  br label %37

29:                                               ; preds = %18
  %30 = load i32, i32* %3, align 4
  %31 = mul nsw i32 %30, 3
  %32 = add nsw i32 %31, 1
  store i32 %32, i32* %4, align 4
  %33 = load i32, i32* %3, align 4
  %34 = load i32, i32* %4, align 4
  %35 = call i32 (i8*, ...) @printf(i8* getelementptr inbounds ([11 x i8], [11 x i8]* @.str.3, i64 0, i64 0), i32 %33, i32 %34)
  %36 = load i32, i32* %4, align 4
  store i32 %36, i32* %3, align 4
  br label %37

37:                                               ; preds = %29, %22
  br label %14

38:                                               ; preds = %17
  %39 = call i32 (i8*, ...) @printf(i8* getelementptr inbounds ([5 x i8], [5 x i8]* @.str.1, i64 0, i64 0))
  br label %40

40:                                               ; preds = %38, %9
  %41 = load i32, i32* %1, align 4
  ret i32 %41
}

declare dso_local i32 @__isoc99_scanf(i8*, ...) #1

declare dso_local i32 @printf(i8*, ...) #1


!llvm.module.flags = !{!0}
!llvm.ident = !{!1}

!0 = !{i32 1, !"wchar_size", i32 4}
!1 = !{!"clang version 10.0.0-4ubuntu1 "}
